target datalayout = "e-m:e-p270:32:32-p271:32:32-p272:64:64-i64:64-i128:128-f80:128-n8:16:32:64-S128"
target triple = "x86_64-pc-linux-gnu"

@ett_h248_EventParameter = internal global i32 0, align 4
@ett_h248_EventParameterV1 = internal global i32 0, align 4
@h248_version = internal global i32 0, align 4

; Function Attrs: nounwind uwtable
define internal i32 @dissect_h248_EventParameterV1(i1 noundef zeroext %0, ptr noundef %1, i32 noundef %2, ptr noundef %3, ptr noundef %4, i32 noundef %5) #0 {
  %7 = alloca i8, align 1
  %8 = alloca ptr, align 8
  %9 = alloca i32, align 4
  %10 = alloca ptr, align 8
  %11 = alloca ptr, align 8
  %12 = alloca i32, align 4
  %13 = zext i1 %0 to i8
  store i8 %13, ptr %7, align 1
  store ptr %1, ptr %8, align 8
  store i32 %2, ptr %9, align 4
  store ptr %3, ptr %10, align 8
  store ptr %4, ptr %11, align 8
  store i32 %5, ptr %12, align 4
  %14 = load i8, ptr %7, align 1
  %15 = trunc i8 %14 to i1
  %16 = load ptr, ptr %10, align 8
  %17 = load ptr, ptr %11, align 8
  %18 = load ptr, ptr %8, align 8
  %19 = load i32, ptr %9, align 4
  %20 = load i32, ptr %12, align 4
  %21 = load i32, ptr @ett_h248_EventParameterV1, align 4
  %22 = call i32 @dissect_ber_sequence(i1 noundef zeroext %15, ptr noundef %16, ptr noundef %17, ptr noundef %18, i32 noundef %19, ptr noundef @EventParameterV1_sequence, i32 noundef %20, i32 noundef %21)
  store i32 %22, ptr %9, align 4
  %23 = load i32, ptr %9, align 4
  ret i32 %23
}

; Function Attrs: nounwind uwtable
define internal i32 @dissect_h248_EventParameter(i1 noundef zeroext %0, ptr noundef %1, i32 noundef %2, ptr noundef %3, ptr noundef %4, i32 noundef %5) #0 {
  %7 = alloca i8, align 1
  %8 = alloca ptr, align 8
  %9 = alloca i32, align 4
  %10 = alloca ptr, align 8
  %11 = alloca ptr, align 8
  %12 = alloca i32, align 4
  %13 = zext i1 %0 to i8
  store i8 %13, ptr %7, align 1
  store ptr %1, ptr %8, align 8
  store i32 %2, ptr %9, align 4
  store ptr %3, ptr %10, align 8
  store ptr %4, ptr %11, align 8
  store i32 %5, ptr %12, align 4
  %14 = load i32, ptr @h248_version, align 4
  %15 = icmp ugt i32 %14, 1
  br i1 %15, label %16, label %26

16:                                               ; preds = %6
  %17 = load i8, ptr %7, align 1
  %18 = trunc i8 %17 to i1
  %19 = load ptr, ptr %10, align 8
  %20 = load ptr, ptr %11, align 8
  %21 = load ptr, ptr %8, align 8
  %22 = load i32, ptr %9, align 4
  %23 = load i32, ptr %12, align 4
  %24 = load i32, ptr @ett_h248_EventParameter, align 4
  %25 = call i32 @dissect_ber_sequence(i1 noundef zeroext %18, ptr noundef %19, ptr noundef %20, ptr noundef %21, i32 noundef %22, ptr noundef @EventParameter_sequence, i32 noundef %23, i32 noundef %24)
  store i32 %25, ptr %9, align 4
  br label %35

26:                                               ; preds = %6
  %27 = load i8, ptr %7, align 1
  %28 = trunc i8 %27 to i1
  %29 = load ptr, ptr %8, align 8
  %30 = load i32, ptr %9, align 4
  %31 = load ptr, ptr %10, align 8
  %32 = load ptr, ptr %11, align 8
  %33 = load i32, ptr %12, align 4
  %34 = call i32 @dissect_h248_EventParameterV1(i1 noundef zeroext %28, ptr noundef %29, i32 noundef %30, ptr noundef %31, ptr noundef %32, i32 noundef %33)
  store i32 %34, ptr %9, align 4
  br label %35

35:                                               ; preds = %26, %16
  %36 = load i32, ptr %9, align 4
  ret i32 %36
}